; Function Attrs: mustprogress nofree nounwind willreturn memory(argmem: read) uwtable
define internal fastcc i32 @phar_validate_alias(ptr noundef readonly %0, i64 noundef %1) unnamed_addr #17 {
  %3 = tail call ptr @memchr(ptr noundef %0, i32 noundef 47, i64 noundef %1) #24
  %.not = icmp eq ptr %3, null
  br i1 %.not, label %4, label %16

4:                                                ; preds = %2
  %5 = tail call ptr @memchr(ptr noundef %0, i32 noundef 92, i64 noundef %1) #24
  %.not11 = icmp eq ptr %5, null
  br i1 %.not11, label %6, label %16

6:                                                ; preds = %4
  %7 = tail call ptr @memchr(ptr noundef %0, i32 noundef 58, i64 noundef %1) #24
  %.not12 = icmp eq ptr %7, null
  br i1 %.not12, label %8, label %16

8:                                                ; preds = %6
  %9 = tail call ptr @memchr(ptr noundef %0, i32 noundef 59, i64 noundef %1) #24
  %.not13 = icmp eq ptr %9, null
  br i1 %.not13, label %10, label %16

10:                                               ; preds = %8
  %11 = tail call ptr @memchr(ptr noundef %0, i32 noundef 10, i64 noundef %1) #24
  %.not14 = icmp eq ptr %11, null
  br i1 %.not14, label %12, label %16

12:                                               ; preds = %10
  %13 = tail call ptr @memchr(ptr noundef %0, i32 noundef 13, i64 noundef %1) #24
  %14 = icmp eq ptr %13, null
  %15 = zext i1 %14 to i32
  br label %16

16:                                               ; preds = %12, %10, %8, %6, %4, %2
  %17 = phi i32 [ 0, %10 ], [ 0, %8 ], [ 0, %6 ], [ 0, %4 ], [ 0, %2 ], [ %15, %12 ]
  ret i32 %17
}